; Function Attrs: nounwind uwtable
define ptr @l_Lean_Server_RequestM_parseRequestParams___rarg___boxed(ptr noundef %0, ptr noundef %1, ptr noundef %2, ptr noundef %3) #1 {
  %5 = tail call ptr @l_Lean_Server_parseRequestParams___rarg(ptr noundef %0, ptr noundef %1)
  %6 = tail call ptr @l_EIO_ofExcept___rarg(ptr noundef %5, ptr noundef %3) #6
  %7 = ptrtoint ptr %5 to i64
  %8 = and i64 %7, 1
  %.not.i6 = icmp eq i64 %8, 0
  br i1 %.not.i6, label %9, label %l_Lean_Server_RequestM_parseRequestParams___rarg.exit

9:                                                ; preds = %4
  %10 = load i32, ptr %5, align 4, !tbaa !4
  %11 = icmp sgt i32 %10, 1
  br i1 %11, label %12, label %14, !prof !11

12:                                               ; preds = %9
  %13 = add nsw i32 %10, -1
  store i32 %13, ptr %5, align 4, !tbaa !4
  br label %l_Lean_Server_RequestM_parseRequestParams___rarg.exit

14:                                               ; preds = %9
  %.not.i.i = icmp eq i32 %10, 0
  br i1 %.not.i.i, label %l_Lean_Server_RequestM_parseRequestParams___rarg.exit, label %15

15:                                               ; preds = %14
  tail call void @lean_dec_ref_cold(ptr noundef nonnull %5) #6
  br label %l_Lean_Server_RequestM_parseRequestParams___rarg.exit

l_Lean_Server_RequestM_parseRequestParams___rarg.exit: ; preds = %4, %12, %14, %15
  %16 = ptrtoint ptr %2 to i64
  %17 = and i64 %16, 1
  %.not = icmp eq i64 %17, 0
  br i1 %.not, label %18, label %lean_dec.exit

18:                                               ; preds = %l_Lean_Server_RequestM_parseRequestParams___rarg.exit
  %19 = load i32, ptr %2, align 4, !tbaa !4
  %20 = icmp sgt i32 %19, 1
  br i1 %20, label %21, label %23, !prof !11

21:                                               ; preds = %18
  %22 = add nsw i32 %19, -1
  store i32 %22, ptr %2, align 4, !tbaa !4
  br label %lean_dec.exit

23:                                               ; preds = %18
  %.not.i = icmp eq i32 %19, 0
  br i1 %.not.i, label %lean_dec.exit, label %24

24:                                               ; preds = %23
  tail call void @lean_dec_ref_cold(ptr noundef nonnull %2) #6
  br label %lean_dec.exit

lean_dec.exit:                                    ; preds = %24, %23, %21, %l_Lean_Server_RequestM_parseRequestParams___rarg.exit
  ret ptr %6
}